target datalayout = "e-m:e-p270:32:32-p271:32:32-p272:64:64-i64:64-i128:128-f80:128-n8:16:32:64-S128"
target triple = "x86_64-pc-linux-gnu"

%struct.mi_stats_s = type { %struct.mi_stat_count_s, %struct.mi_stat_count_s, %struct.mi_stat_count_s, %struct.mi_stat_count_s, %struct.mi_stat_count_s, %struct.mi_stat_count_s, %struct.mi_stat_count_s, %struct.mi_stat_count_s, %struct.mi_stat_count_s, %struct.mi_stat_count_s, %struct.mi_stat_count_s, %struct.mi_stat_count_s, %struct.mi_stat_count_s, %struct.mi_stat_count_s, %struct.mi_stat_count_s, %struct.mi_stat_counter_s, %struct.mi_stat_counter_s, %struct.mi_stat_counter_s, %struct.mi_stat_counter_s, %struct.mi_stat_counter_s, %struct.mi_stat_counter_s, %struct.mi_stat_counter_s, %struct.mi_stat_counter_s, %struct.mi_stat_counter_s, %struct.mi_stat_counter_s, %struct.mi_stat_counter_s, %struct.mi_stat_counter_s, %struct.mi_stat_counter_s }
%struct.mi_stat_count_s = type { i64, i64, i64, i64 }
%struct.mi_stat_counter_s = type { i64, i64 }
%struct.mi_memid_s = type { %union.anon, i8, i8, i8, i32 }
%union.anon = type { %struct.mi_memid_os_info }
%struct.mi_memid_os_info = type { ptr, i64 }
%struct.mi_arena_s = type { i32, %struct.mi_memid_s, ptr, i64, i64, i64, %struct.mi_memid_s, i32, i8, i8, %union.pthread_mutex_t, i64, i64, ptr, ptr, ptr, ptr, [1 x i64] }
%union.pthread_mutex_t = type { %struct.__pthread_mutex_s }
%struct.__pthread_mutex_s = type { i32, i32, i32, i32, i32, i16, i16, %struct.__pthread_internal_list }
%struct.__pthread_internal_list = type { ptr, ptr }
%struct.mi_memid_arena_info = type { i64, i32, i8 }

@mi_arenas = internal global [132 x ptr] zeroinitializer, align 64
@_mi_stats_main = external global %struct.mi_stats_s, align 64
@.str.1 = private unnamed_addr constant [66 x i8] c"trying to free from an invalid arena: %p, size %zu, memid: 0x%zx\0A\00", align 1
@.str.2 = private unnamed_addr constant [72 x i8] c"trying to free from an invalid arena block: %p, size %zu, memid: 0x%zx\0A\00", align 1
@.str.3 = private unnamed_addr constant [59 x i8] c"trying to free an already freed arena block: %p, size %zu\0A\00", align 1

; Function Attrs: inlinehint nounwind uwtable
define internal i64 @_mi_divide_up(i64 noundef %0, i64 noundef %1) #4 {
  %3 = alloca i64, align 8
  %4 = alloca i64, align 8
  store i64 %0, ptr %3, align 8, !tbaa !15
  store i64 %1, ptr %4, align 8, !tbaa !15
  %5 = load i64, ptr %4, align 8, !tbaa !15
  %6 = icmp eq i64 %5, 0
  br i1 %6, label %7, label %9

7:                                                ; preds = %2
  %8 = load i64, ptr %3, align 8, !tbaa !15
  br label %16

9:                                                ; preds = %2
  %10 = load i64, ptr %3, align 8, !tbaa !15
  %11 = load i64, ptr %4, align 8, !tbaa !15
  %12 = add i64 %10, %11
  %13 = sub i64 %12, 1
  %14 = load i64, ptr %4, align 8, !tbaa !15
  %15 = udiv i64 %13, %14
  br label %16

16:                                               ; preds = %9, %7
  %17 = phi i64 [ %8, %7 ], [ %15, %9 ]
  ret i64 %17
}

; Function Attrs: nounwind uwtable
define hidden i64 @mi_arena_id_index(i32 noundef %0) #0 {
  %2 = alloca i32, align 4
  store i32 %0, ptr %2, align 4, !tbaa !52
  %3 = load i32, ptr %2, align 4, !tbaa !52
  %4 = icmp sle i32 %3, 0
  br i1 %4, label %5, label %6

5:                                                ; preds = %1
  br label %9

6:                                                ; preds = %1
  %7 = load i32, ptr %2, align 4, !tbaa !52
  %8 = sub nsw i32 %7, 1
  br label %9

9:                                                ; preds = %6, %5
  %10 = phi i32 [ 132, %5 ], [ %8, %6 ]
  %11 = sext i32 %10 to i64
  ret i64 %11
}

; Function Attrs: inlinehint nounwind uwtable
define internal i64 @mi_bitmap_index_field(i64 noundef %0) #4 {
  %2 = alloca i64, align 8
  store i64 %0, ptr %2, align 8, !tbaa !15
  %3 = load i64, ptr %2, align 8, !tbaa !15
  %4 = udiv i64 %3, 64
  ret i64 %4
}

; Function Attrs: nounwind uwtable
define internal i64 @mi_block_count_of_size(i64 noundef %0) #0 {
  %2 = alloca i64, align 8
  store i64 %0, ptr %2, align 8, !tbaa !15
  %3 = load i64, ptr %2, align 8, !tbaa !15
  %4 = call i64 @_mi_divide_up(i64 noundef %3, i64 noundef 4194304) #12
  ret i64 %4
}

; Function Attrs: nounwind uwtable
define hidden zeroext i1 @mi_arena_memid_indices(ptr noundef byval(%struct.mi_memid_s) align 8 %0, ptr noundef %1, ptr noundef %2) #0 {
  %4 = alloca ptr, align 8
  %5 = alloca ptr, align 8
  store ptr %1, ptr %4, align 8, !tbaa !31
  store ptr %2, ptr %5, align 8, !tbaa !31
  %6 = getelementptr inbounds nuw %struct.mi_memid_s, ptr %0, i32 0, i32 0
  %7 = getelementptr inbounds nuw %struct.mi_memid_arena_info, ptr %6, i32 0, i32 1
  %8 = load i32, ptr %7, align 8, !tbaa !33
  %9 = call i64 @mi_arena_id_index(i32 noundef %8) #12
  %10 = load ptr, ptr %4, align 8, !tbaa !31
  store i64 %9, ptr %10, align 8, !tbaa !15
  %11 = getelementptr inbounds nuw %struct.mi_memid_s, ptr %0, i32 0, i32 0
  %12 = getelementptr inbounds nuw %struct.mi_memid_arena_info, ptr %11, i32 0, i32 0
  %13 = load i64, ptr %12, align 8, !tbaa !33
  %14 = load ptr, ptr %5, align 8, !tbaa !31
  store i64 %13, ptr %14, align 8, !tbaa !15
  %15 = getelementptr inbounds nuw %struct.mi_memid_s, ptr %0, i32 0, i32 0
  %16 = getelementptr inbounds nuw %struct.mi_memid_arena_info, ptr %15, i32 0, i32 2
  %17 = load i8, ptr %16, align 4, !tbaa !33, !range !22, !noundef !23
  %18 = trunc i8 %17 to i1
  ret i1 %18
}

; Function Attrs: inlinehint nounwind uwtable
define internal zeroext i1 @mi_memkind_is_os(i32 noundef %0) #4 {
  %2 = alloca i32, align 4
  store i32 %0, ptr %2, align 4, !tbaa !52
  %3 = load i32, ptr %2, align 4, !tbaa !52
  %4 = icmp uge i32 %3, 3
  br i1 %4, label %5, label %8

5:                                                ; preds = %1
  %6 = load i32, ptr %2, align 4, !tbaa !52
  %7 = icmp ule i32 %6, 5
  br label %8

8:                                                ; preds = %5, %1
  %9 = phi i1 [ false, %1 ], [ %7, %5 ]
  ret i1 %9
}

; Function Attrs: nounwind uwtable
define hidden void @_mi_arena_free(ptr noundef %0, i64 noundef %1, i64 noundef %2, ptr noundef byval(%struct.mi_memid_s) align 8 %3) #0 {
  %5 = alloca ptr, align 8
  %6 = alloca i64, align 8
  %7 = alloca i64, align 8
  %8 = alloca i8, align 1
  %9 = alloca i64, align 8
  %10 = alloca i64, align 8
  %11 = alloca ptr, align 8
  %12 = alloca ptr, align 8
  %13 = alloca i64, align 8
  %14 = alloca i32, align 4
  %15 = alloca i8, align 1
  store ptr %0, ptr %5, align 8, !tbaa !53
  store i64 %1, ptr %6, align 8, !tbaa !15
  store i64 %2, ptr %7, align 8, !tbaa !15
  %16 = load ptr, ptr %5, align 8, !tbaa !53
  %17 = icmp eq ptr %16, null
  br i1 %17, label %18, label %19

18:                                               ; preds = %4
  br label %129

19:                                               ; preds = %4
  %20 = load i64, ptr %6, align 8, !tbaa !15
  %21 = icmp eq i64 %20, 0
  br i1 %21, label %22, label %23

22:                                               ; preds = %19
  br label %129

23:                                               ; preds = %19
  call void @llvm.lifetime.start.p0(i64 1, ptr %8) #13
  %24 = load i64, ptr %7, align 8, !tbaa !15
  %25 = load i64, ptr %6, align 8, !tbaa !15
  %26 = icmp eq i64 %24, %25
  %27 = zext i1 %26 to i8
  store i8 %27, ptr %8, align 1, !tbaa !21
  %28 = getelementptr inbounds nuw %struct.mi_memid_s, ptr %3, i32 0, i32 4
  %29 = load i32, ptr %28, align 4, !tbaa !59
  %30 = call zeroext i1 @mi_memkind_is_os(i32 noundef %29) #12
  br i1 %30, label %31, label %42

31:                                               ; preds = %23
  %32 = load i8, ptr %8, align 1, !tbaa !21, !range !22, !noundef !23
  %33 = trunc i8 %32 to i1
  br i1 %33, label %39, label %34

34:                                               ; preds = %31
  %35 = load i64, ptr %7, align 8, !tbaa !15
  %36 = icmp ugt i64 %35, 0
  br i1 %36, label %37, label %39

37:                                               ; preds = %34
  %38 = load i64, ptr %7, align 8, !tbaa !15
  call void @_mi_stat_decrease(ptr noundef getelementptr inbounds nuw (%struct.mi_stats_s, ptr @_mi_stats_main, i32 0, i32 3), i64 noundef %38) #12
  br label %39

39:                                               ; preds = %37, %34, %31
  %40 = load ptr, ptr %5, align 8, !tbaa !53
  %41 = load i64, ptr %6, align 8, !tbaa !15
  call void @_mi_os_free(ptr noundef %40, i64 noundef %41, ptr noundef byval(%struct.mi_memid_s) align 8 %3) #12
  br label %126

42:                                               ; preds = %23
  %43 = getelementptr inbounds nuw %struct.mi_memid_s, ptr %3, i32 0, i32 4
  %44 = load i32, ptr %43, align 4, !tbaa !59
  %45 = icmp eq i32 %44, 6
  br i1 %45, label %46, label %124

46:                                               ; preds = %42
  call void @llvm.lifetime.start.p0(i64 8, ptr %9) #13
  call void @llvm.lifetime.start.p0(i64 8, ptr %10) #13
  %47 = call zeroext i1 @mi_arena_memid_indices(ptr noundef byval(%struct.mi_memid_s) align 8 %3, ptr noundef %9, ptr noundef %10) #12
  call void @llvm.lifetime.start.p0(i64 8, ptr %11) #13
  %48 = load i64, ptr %9, align 8, !tbaa !15
  %49 = getelementptr inbounds nuw [132 x ptr], ptr @mi_arenas, i64 0, i64 %48
  %50 = load atomic i64, ptr %49 acquire, align 8
  store i64 %50, ptr %12, align 8
  %51 = load ptr, ptr %12, align 8, !tbaa !16
  store ptr %51, ptr %11, align 8, !tbaa !16
  call void @llvm.lifetime.start.p0(i64 8, ptr %13) #13
  %52 = load i64, ptr %6, align 8, !tbaa !15
  %53 = call i64 @mi_block_count_of_size(i64 noundef %52) #12
  store i64 %53, ptr %13, align 8, !tbaa !15
  %54 = load ptr, ptr %11, align 8, !tbaa !16
  %55 = icmp eq ptr %54, null
  br i1 %55, label %56, label %59

56:                                               ; preds = %46
  %57 = load ptr, ptr %5, align 8, !tbaa !53
  %58 = load i64, ptr %6, align 8, !tbaa !15
  call void (i32, ptr, ...) @_mi_error_message(i32 noundef 22, ptr noundef @.str.1, ptr noundef %57, i64 noundef %58, ptr noundef byval(%struct.mi_memid_s) align 8 %3) #12
  store i32 1, ptr %14, align 4
  br label %121

59:                                               ; preds = %46
  %60 = load ptr, ptr %11, align 8, !tbaa !16
  %61 = getelementptr inbounds nuw %struct.mi_arena_s, ptr %60, i32 0, i32 4
  %62 = load i64, ptr %61, align 8, !tbaa !20
  %63 = load i64, ptr %10, align 8, !tbaa !15
  %64 = call i64 @mi_bitmap_index_field(i64 noundef %63) #12
  %65 = icmp ule i64 %62, %64
  br i1 %65, label %66, label %69

66:                                               ; preds = %59
  %67 = load ptr, ptr %5, align 8, !tbaa !53
  %68 = load i64, ptr %6, align 8, !tbaa !15
  call void (i32, ptr, ...) @_mi_error_message(i32 noundef 22, ptr noundef @.str.2, ptr noundef %67, i64 noundef %68, ptr noundef byval(%struct.mi_memid_s) align 8 %3) #12
  store i32 1, ptr %14, align 4
  br label %121

69:                                               ; preds = %59
  %70 = load ptr, ptr %11, align 8, !tbaa !16
  %71 = getelementptr inbounds nuw %struct.mi_arena_s, ptr %70, i32 0, i32 1
  %72 = getelementptr inbounds nuw %struct.mi_memid_s, ptr %71, i32 0, i32 1
  %73 = load i8, ptr %72, align 8, !tbaa !76, !range !22, !noundef !23
  %74 = trunc i8 %73 to i1
  br i1 %74, label %80, label %75

75:                                               ; preds = %69
  %76 = load ptr, ptr %11, align 8, !tbaa !16
  %77 = getelementptr inbounds nuw %struct.mi_arena_s, ptr %76, i32 0, i32 14
  %78 = load ptr, ptr %77, align 8, !tbaa !77
  %79 = icmp eq ptr %78, null
  br i1 %79, label %80, label %81

80:                                               ; preds = %75, %69
  br label %103

81:                                               ; preds = %75
  %82 = load i8, ptr %8, align 1, !tbaa !21, !range !22, !noundef !23
  %83 = trunc i8 %82 to i1
  br i1 %83, label %99, label %84

84:                                               ; preds = %81
  %85 = load ptr, ptr %11, align 8, !tbaa !16
  %86 = getelementptr inbounds nuw %struct.mi_arena_s, ptr %85, i32 0, i32 14
  %87 = load ptr, ptr %86, align 8, !tbaa !77
  %88 = load ptr, ptr %11, align 8, !tbaa !16
  %89 = getelementptr inbounds nuw %struct.mi_arena_s, ptr %88, i32 0, i32 4
  %90 = load i64, ptr %89, align 8, !tbaa !20
  %91 = load i64, ptr %13, align 8, !tbaa !15
  %92 = load i64, ptr %10, align 8, !tbaa !15
  %93 = call zeroext i1 @_mi_bitmap_unclaim_across(ptr noundef %87, i64 noundef %90, i64 noundef %91, i64 noundef %92) #12
  %94 = load i64, ptr %7, align 8, !tbaa !15
  %95 = icmp ugt i64 %94, 0
  br i1 %95, label %96, label %98

96:                                               ; preds = %84
  %97 = load i64, ptr %7, align 8, !tbaa !15
  call void @_mi_stat_decrease(ptr noundef getelementptr inbounds nuw (%struct.mi_stats_s, ptr @_mi_stats_main, i32 0, i32 3), i64 noundef %97) #12
  br label %98

98:                                               ; preds = %96, %84
  br label %99

99:                                               ; preds = %98, %81
  %100 = load ptr, ptr %11, align 8, !tbaa !16
  %101 = load i64, ptr %10, align 8, !tbaa !15
  %102 = load i64, ptr %13, align 8, !tbaa !15
  call void @mi_arena_schedule_purge(ptr noundef %100, i64 noundef %101, i64 noundef %102) #12
  br label %103

103:                                              ; preds = %99, %80
  call void @llvm.lifetime.start.p0(i64 1, ptr %15) #13
  %104 = load ptr, ptr %11, align 8, !tbaa !16
  %105 = getelementptr inbounds nuw %struct.mi_arena_s, ptr %104, i32 0, i32 17
  %106 = getelementptr inbounds [1 x i64], ptr %105, i64 0, i64 0
  %107 = load ptr, ptr %11, align 8, !tbaa !16
  %108 = getelementptr inbounds nuw %struct.mi_arena_s, ptr %107, i32 0, i32 4
  %109 = load i64, ptr %108, align 8, !tbaa !20
  %110 = load i64, ptr %13, align 8, !tbaa !15
  %111 = load i64, ptr %10, align 8, !tbaa !15
  %112 = call zeroext i1 @_mi_bitmap_unclaim_across(ptr noundef %106, i64 noundef %109, i64 noundef %110, i64 noundef %111) #12
  %113 = zext i1 %112 to i8
  store i8 %113, ptr %15, align 1, !tbaa !21
  %114 = load i8, ptr %15, align 1, !tbaa !21, !range !22, !noundef !23
  %115 = trunc i8 %114 to i1
  br i1 %115, label %119, label %116

116:                                              ; preds = %103
  %117 = load ptr, ptr %5, align 8, !tbaa !53
  %118 = load i64, ptr %6, align 8, !tbaa !15
  call void (i32, ptr, ...) @_mi_error_message(i32 noundef 11, ptr noundef @.str.3, ptr noundef %117, i64 noundef %118) #12
  store i32 1, ptr %14, align 4
  br label %120

119:                                              ; preds = %103
  store i32 0, ptr %14, align 4
  br label %120

120:                                              ; preds = %119, %116
  call void @llvm.lifetime.end.p0(i64 1, ptr %15) #13
  br label %121

121:                                              ; preds = %120, %66, %56
  call void @llvm.lifetime.end.p0(i64 8, ptr %13) #13
  call void @llvm.lifetime.end.p0(i64 8, ptr %11) #13
  call void @llvm.lifetime.end.p0(i64 8, ptr %10) #13
  call void @llvm.lifetime.end.p0(i64 8, ptr %9) #13
  %122 = load i32, ptr %14, align 4
  switch i32 %122, label %127 [
    i32 0, label %123
  ]

123:                                              ; preds = %121
  br label %125

124:                                              ; preds = %42
  br label %125

125:                                              ; preds = %124, %123
  br label %126

126:                                              ; preds = %125, %39
  call void @mi_arenas_try_purge(i1 noundef zeroext false, i1 noundef zeroext false) #12
  store i32 0, ptr %14, align 4
  br label %127

127:                                              ; preds = %126, %121
  call void @llvm.lifetime.end.p0(i64 1, ptr %8) #13
  %128 = load i32, ptr %14, align 4
  switch i32 %128, label %130 [
    i32 0, label %129
    i32 1, label %129
  ]

129:                                              ; preds = %18, %22, %127, %127
  ret void

130:                                              ; preds = %127
  unreachable
}