; Function Attrs: nounwind uwtable
define hidden void @_mi_arena_free(ptr noundef %0, i64 noundef %1, i64 noundef %2, ptr noundef readonly byval(%struct.mi_memid_s) align 8 captures(none) %3) local_unnamed_addr #0 {
  %5 = icmp eq ptr %0, null
  %6 = icmp eq i64 %1, 0
  %or.cond3 = or i1 %5, %6
  br i1 %or.cond3, label %.critedge, label %7

7:                                                ; preds = %4
  %8 = icmp ne i64 %2, %1
  %9 = getelementptr inbounds nuw i8, ptr %3, i64 20
  %10 = load i32, ptr %9, align 4, !tbaa !46
  %11 = add i32 %10, -3
  %12 = icmp ult i32 %11, 3
  br i1 %12, label %13, label %17

13:                                               ; preds = %7
  %14 = icmp ne i64 %2, 0
  %or.cond = and i1 %8, %14
  br i1 %or.cond, label %15, label %16

15:                                               ; preds = %13
  tail call void @_mi_stat_decrease(ptr noundef nonnull getelementptr inbounds nuw (i8, ptr @_mi_stats_main, i64 96), i64 noundef %2) #20
  br label %16

16:                                               ; preds = %15, %13
  tail call void @_mi_os_free(ptr noundef nonnull %0, i64 noundef %1, ptr noundef nonnull byval(%struct.mi_memid_s) align 8 %3) #20
  br label %.critedge45

17:                                               ; preds = %7
  %18 = icmp eq i32 %10, 6
  br i1 %18, label %19, label %.critedge45

19:                                               ; preds = %17
  %.sroa.0.0.copyload = load i64, ptr %3, align 8
  %.sroa.4.0..sroa_idx = getelementptr inbounds nuw i8, ptr %3, i64 8
  %.sroa.4.0.copyload = load i32, ptr %.sroa.4.0..sroa_idx, align 8
  %20 = icmp slt i32 %.sroa.4.0.copyload, 1
  %21 = add nsw i32 %.sroa.4.0.copyload, -1
  %22 = select i1 %20, i32 132, i32 %21
  %23 = zext nneg i32 %22 to i64
  %24 = getelementptr inbounds nuw [132 x ptr], ptr @mi_arenas, i64 0, i64 %23
  %25 = load atomic i64, ptr %24 acquire, align 8
  %26 = inttoptr i64 %25 to ptr
  %27 = add i64 %1, 4194303
  %28 = lshr i64 %27, 22
  %29 = icmp eq i64 %25, 0
  br i1 %29, label %30, label %31

30:                                               ; preds = %19
  tail call void (i32, ptr, ...) @_mi_error_message(i32 noundef 22, ptr noundef nonnull @.str.1, ptr noundef nonnull %0, i64 noundef %1, ptr noundef nonnull byval(%struct.mi_memid_s) align 8 %3) #20
  br label %.critedge

31:                                               ; preds = %19
  %32 = getelementptr inbounds nuw i8, ptr %26, i64 48
  %33 = load i64, ptr %32, align 8, !tbaa !17
  %34 = lshr i64 %.sroa.0.0.copyload, 6
  %.not42 = icmp ugt i64 %33, %34
  br i1 %.not42, label %36, label %35

35:                                               ; preds = %31
  tail call void (i32, ptr, ...) @_mi_error_message(i32 noundef 22, ptr noundef nonnull @.str.2, ptr noundef nonnull %0, i64 noundef %1, ptr noundef nonnull byval(%struct.mi_memid_s) align 8 %3) #20
  br label %.critedge

36:                                               ; preds = %31
  %37 = getelementptr inbounds nuw i8, ptr %26, i64 24
  %38 = load i8, ptr %37, align 8, !tbaa !57, !range !26, !noundef !27
  %39 = trunc nuw i8 %38 to i1
  br i1 %39, label %49, label %40

40:                                               ; preds = %36
  %41 = getelementptr inbounds nuw i8, ptr %26, i64 160
  %42 = load ptr, ptr %41, align 8, !tbaa !58
  %43 = icmp eq ptr %42, null
  br i1 %43, label %49, label %44

44:                                               ; preds = %40
  br i1 %8, label %45, label %48

45:                                               ; preds = %44
  %46 = tail call zeroext i1 @_mi_bitmap_unclaim_across(ptr noundef nonnull %42, i64 noundef %33, i64 noundef %28, i64 noundef %.sroa.0.0.copyload) #20
  %.not43 = icmp eq i64 %2, 0
  br i1 %.not43, label %48, label %47

47:                                               ; preds = %45
  tail call void @_mi_stat_decrease(ptr noundef nonnull getelementptr inbounds nuw (i8, ptr @_mi_stats_main, i64 96), i64 noundef %2) #20
  br label %48

48:                                               ; preds = %45, %47, %44
  tail call fastcc void @mi_arena_schedule_purge(ptr noundef %26, i64 noundef %.sroa.0.0.copyload, i64 noundef %28) #19
  %.pre = load i64, ptr %32, align 8, !tbaa !17
  br label %49

49:                                               ; preds = %36, %40, %48
  %50 = phi i64 [ %33, %36 ], [ %33, %40 ], [ %.pre, %48 ]
  %51 = getelementptr inbounds nuw i8, ptr %26, i64 184
  %52 = tail call zeroext i1 @_mi_bitmap_unclaim_across(ptr noundef nonnull %51, i64 noundef %50, i64 noundef %28, i64 noundef %.sroa.0.0.copyload) #20
  br i1 %52, label %.critedge45, label %53

53:                                               ; preds = %49
  tail call void (i32, ptr, ...) @_mi_error_message(i32 noundef 11, ptr noundef nonnull @.str.3, ptr noundef nonnull %0, i64 noundef %1) #20
  br label %.critedge

.critedge45:                                      ; preds = %49, %17, %16
  tail call fastcc void @mi_arenas_try_purge(i1 noundef zeroext false, i1 noundef zeroext false) #19
  br label %.critedge

.critedge:                                        ; preds = %30, %35, %53, %.critedge45, %4
  ret void
}